; Function Attrs: mustprogress uwtable
define noundef i64 @_ZNK3net10SpdyFramer11GetPingSizeEv(ptr noundef nonnull readonly align 8 captures(none) dereferenceable(259) %0) local_unnamed_addr #0 align 2 {
  %2 = getelementptr inbounds nuw i8, ptr %0, i64 248
  %3 = load i32, ptr %2, align 8, !tbaa !82
  %4 = icmp eq i32 %3, 1
  %.3 = select i1 %4, i64 4, i64 8
  %5 = tail call noundef i64 @_ZN3net13SpdyConstants18GetFrameHeaderSizeENS_16SpdyMajorVersionE(i32 noundef %3)
  %6 = add i64 %5, %.3
  ret i64 %6
}